target datalayout = "e-m:e-p270:32:32-p271:32:32-p272:64:64-i64:64-i128:128-f80:128-n8:16:32:64-S128"
target triple = "x86_64-pc-linux-gnu"

%struct.UCharIterator = type { ptr, i32, i32, i32, i32, i32, ptr, ptr, ptr, ptr, ptr, ptr, ptr, ptr, ptr, ptr }

; Function Attrs: mustprogress uwtable
define void @uiter_setString_77(ptr noundef %0, ptr noundef %1, i32 noundef %2) #0 {
  %4 = alloca ptr, align 8
  %5 = alloca ptr, align 8
  %6 = alloca i32, align 4
  store ptr %0, ptr %4, align 8, !tbaa !3
  store ptr %1, ptr %5, align 8, !tbaa !8
  store i32 %2, ptr %6, align 4, !tbaa !10
  %7 = load ptr, ptr %4, align 8, !tbaa !3
  %8 = icmp ne ptr %7, null
  br i1 %8, label %9, label %40

9:                                                ; preds = %3
  %10 = load ptr, ptr %5, align 8, !tbaa !8
  %11 = icmp ne ptr %10, null
  br i1 %11, label %12, label %37

12:                                               ; preds = %9
  %13 = load i32, ptr %6, align 4, !tbaa !10
  %14 = icmp sge i32 %13, -1
  br i1 %14, label %15, label %37

15:                                               ; preds = %12
  %16 = load ptr, ptr %4, align 8, !tbaa !3
  call void @llvm.memcpy.p0.p0.i64(ptr align 8 %16, ptr align 8 @_ZL14stringIterator, i64 112, i1 false), !tbaa.struct !12
  %17 = load ptr, ptr %5, align 8, !tbaa !8
  %18 = load ptr, ptr %4, align 8, !tbaa !3
  %19 = getelementptr inbounds nuw %struct.UCharIterator, ptr %18, i32 0, i32 0
  store ptr %17, ptr %19, align 8, !tbaa !14
  %20 = load i32, ptr %6, align 4, !tbaa !10
  %21 = icmp sge i32 %20, 0
  br i1 %21, label %22, label %26

22:                                               ; preds = %15
  %23 = load i32, ptr %6, align 4, !tbaa !10
  %24 = load ptr, ptr %4, align 8, !tbaa !3
  %25 = getelementptr inbounds nuw %struct.UCharIterator, ptr %24, i32 0, i32 1
  store i32 %23, ptr %25, align 8, !tbaa !16
  br label %31

26:                                               ; preds = %15
  %27 = load ptr, ptr %5, align 8, !tbaa !8
  %28 = call i32 @u_strlen_77(ptr noundef %27)
  %29 = load ptr, ptr %4, align 8, !tbaa !3
  %30 = getelementptr inbounds nuw %struct.UCharIterator, ptr %29, i32 0, i32 1
  store i32 %28, ptr %30, align 8, !tbaa !16
  br label %31

31:                                               ; preds = %26, %22
  %32 = load ptr, ptr %4, align 8, !tbaa !3
  %33 = getelementptr inbounds nuw %struct.UCharIterator, ptr %32, i32 0, i32 1
  %34 = load i32, ptr %33, align 8, !tbaa !16
  %35 = load ptr, ptr %4, align 8, !tbaa !3
  %36 = getelementptr inbounds nuw %struct.UCharIterator, ptr %35, i32 0, i32 4
  store i32 %34, ptr %36, align 4, !tbaa !17
  br label %39

37:                                               ; preds = %12, %9
  %38 = load ptr, ptr %4, align 8, !tbaa !3
  call void @llvm.memcpy.p0.p0.i64(ptr align 8 %38, ptr align 8 @_ZL12noopIterator, i64 112, i1 false), !tbaa.struct !12
  br label %39

39:                                               ; preds = %37, %31
  br label %40

40:                                               ; preds = %39, %3
  ret void
}