; Function Attrs: mustprogress uwtable
define void @uiter_setString_77(ptr noundef writeonly %0, ptr noundef %1, i32 noundef %2) local_unnamed_addr #0 {
  %.not = icmp eq ptr %0, null
  br i1 %.not, label %15, label %4

4:                                                ; preds = %3
  %5 = icmp ne ptr %1, null
  %6 = icmp sgt i32 %2, -2
  %or.cond = and i1 %5, %6
  br i1 %or.cond, label %7, label %14

7:                                                ; preds = %4
  tail call void @llvm.memcpy.p0.p0.i64(ptr noundef nonnull align 8 dereferenceable(112) %0, ptr noundef nonnull align 8 dereferenceable(112) @_ZL14stringIterator, i64 112, i1 false), !tbaa.struct !3
  store ptr %1, ptr %0, align 8, !tbaa !10
  %8 = icmp sgt i32 %2, -1
  br i1 %8, label %11, label %9

9:                                                ; preds = %7
  %10 = tail call i32 @u_strlen_77(ptr noundef nonnull %1)
  br label %11

11:                                               ; preds = %7, %9
  %.sink = phi i32 [ %10, %9 ], [ %2, %7 ]
  %12 = getelementptr inbounds nuw i8, ptr %0, i64 8
  store i32 %.sink, ptr %12, align 8, !tbaa !12
  %13 = getelementptr inbounds nuw i8, ptr %0, i64 20
  store i32 %.sink, ptr %13, align 4, !tbaa !13
  br label %15

14:                                               ; preds = %4
  tail call void @llvm.memcpy.p0.p0.i64(ptr noundef nonnull align 8 dereferenceable(112) %0, ptr noundef nonnull align 8 dereferenceable(112) @_ZL12noopIterator, i64 112, i1 false), !tbaa.struct !3
  br label %15

15:                                               ; preds = %11, %14, %3
  ret void
}